target datalayout = "e-m:e-p270:32:32-p271:32:32-p272:64:64-i64:64-i128:128-f80:128-n8:16:32:64-S128"
target triple = "x86_64-unknown-linux-gnu"

%"class.icu_75::UVector32" = type { %"class.icu_75::UObject", i32, i32, i32, ptr }
%"class.icu_75::UObject" = type { ptr }

; Function Attrs: mustprogress uwtable
define void @_ZN6icu_759UVector3214setMaxCapacityEi(ptr noundef nonnull align 8 dereferenceable(32) %this, i32 noundef %limit) #1 align 2 {
entry:
  %this.addr = alloca ptr, align 8
  %limit.addr = alloca i32, align 4
  %newElems = alloca ptr, align 8
  store ptr %this, ptr %this.addr, align 8
  store i32 %limit, ptr %limit.addr, align 4
  %this1 = load ptr, ptr %this.addr, align 8
  %0 = load i32, ptr %limit.addr, align 4
  %cmp = icmp slt i32 %0, 0
  br i1 %cmp, label %if.then, label %if.end

if.then:                                          ; preds = %entry
  store i32 0, ptr %limit.addr, align 4
  br label %if.end

if.end:                                           ; preds = %if.then, %entry
  %1 = load i32, ptr %limit.addr, align 4
  %cmp2 = icmp sgt i32 %1, 536870911
  br i1 %cmp2, label %if.then3, label %if.end4

if.then3:                                         ; preds = %if.end
  br label %if.end23

if.end4:                                          ; preds = %if.end
  %2 = load i32, ptr %limit.addr, align 4
  %maxCapacity = getelementptr inbounds %"class.icu_75::UVector32", ptr %this1, i32 0, i32 3
  store i32 %2, ptr %maxCapacity, align 8
  %capacity = getelementptr inbounds %"class.icu_75::UVector32", ptr %this1, i32 0, i32 2
  %3 = load i32, ptr %capacity, align 4
  %maxCapacity5 = getelementptr inbounds %"class.icu_75::UVector32", ptr %this1, i32 0, i32 3
  %4 = load i32, ptr %maxCapacity5, align 8
  %cmp6 = icmp sle i32 %3, %4
  br i1 %cmp6, label %if.then9, label %lor.lhs.false

lor.lhs.false:                                    ; preds = %if.end4
  %maxCapacity7 = getelementptr inbounds %"class.icu_75::UVector32", ptr %this1, i32 0, i32 3
  %5 = load i32, ptr %maxCapacity7, align 8
  %cmp8 = icmp eq i32 %5, 0
  br i1 %cmp8, label %if.then9, label %if.end10

if.then9:                                         ; preds = %lor.lhs.false, %if.end4
  br label %if.end23

if.end10:                                         ; preds = %lor.lhs.false
  %elements = getelementptr inbounds %"class.icu_75::UVector32", ptr %this1, i32 0, i32 4
  %6 = load ptr, ptr %elements, align 8
  %maxCapacity11 = getelementptr inbounds %"class.icu_75::UVector32", ptr %this1, i32 0, i32 3
  %7 = load i32, ptr %maxCapacity11, align 8
  %conv = sext i32 %7 to i64
  %mul = mul i64 4, %conv
  %call = call ptr @uprv_realloc_75(ptr noundef %6, i64 noundef %mul) #10
  store ptr %call, ptr %newElems, align 8
  %8 = load ptr, ptr %newElems, align 8
  %cmp12 = icmp eq ptr %8, null
  br i1 %cmp12, label %if.then13, label %if.end14

if.then13:                                        ; preds = %if.end10
  br label %if.end23

if.end14:                                         ; preds = %if.end10
  %9 = load ptr, ptr %newElems, align 8
  %elements15 = getelementptr inbounds %"class.icu_75::UVector32", ptr %this1, i32 0, i32 4
  store ptr %9, ptr %elements15, align 8
  %maxCapacity16 = getelementptr inbounds %"class.icu_75::UVector32", ptr %this1, i32 0, i32 3
  %10 = load i32, ptr %maxCapacity16, align 8
  %capacity17 = getelementptr inbounds %"class.icu_75::UVector32", ptr %this1, i32 0, i32 2
  store i32 %10, ptr %capacity17, align 4
  %count = getelementptr inbounds %"class.icu_75::UVector32", ptr %this1, i32 0, i32 1
  %11 = load i32, ptr %count, align 8
  %capacity18 = getelementptr inbounds %"class.icu_75::UVector32", ptr %this1, i32 0, i32 2
  %12 = load i32, ptr %capacity18, align 4
  %cmp19 = icmp sgt i32 %11, %12
  br i1 %cmp19, label %if.then20, label %if.end23

if.then20:                                        ; preds = %if.end14
  %capacity21 = getelementptr inbounds %"class.icu_75::UVector32", ptr %this1, i32 0, i32 2
  %13 = load i32, ptr %capacity21, align 4
  %count22 = getelementptr inbounds %"class.icu_75::UVector32", ptr %this1, i32 0, i32 1
  store i32 %13, ptr %count22, align 8
  br label %if.end23

if.end23:                                         ; preds = %if.then20, %if.end14, %if.then13, %if.then9, %if.then3
  ret void
}