; Function Attrs: mustprogress uwtable
define void @_ZN6icu_759UVector3214setMaxCapacityEi(ptr nocapture noundef nonnull align 8 dereferenceable(32) %this, i32 noundef %limit) local_unnamed_addr #1 align 2 {
entry:
  %spec.store.select = tail call i32 @llvm.smax.i32(i32 %limit, i32 0)
  %cmp2 = icmp sgt i32 %limit, 536870911
  br i1 %cmp2, label %if.end23, label %if.end4

if.end4:                                          ; preds = %entry
  %maxCapacity = getelementptr inbounds i8, ptr %this, i64 16
  store i32 %spec.store.select, ptr %maxCapacity, align 8
  %capacity = getelementptr inbounds i8, ptr %this, i64 12
  %0 = load i32, ptr %capacity, align 4
  %cmp6.not = icmp sle i32 %0, %spec.store.select
  %cmp8 = icmp slt i32 %limit, 1
  %or.cond = or i1 %cmp8, %cmp6.not
  br i1 %or.cond, label %if.end23, label %if.end10

if.end10:                                         ; preds = %if.end4
  %elements = getelementptr inbounds i8, ptr %this, i64 24
  %1 = load ptr, ptr %elements, align 8
  %conv = zext nneg i32 %spec.store.select to i64
  %mul = shl nuw nsw i64 %conv, 2
  %call = tail call ptr @uprv_realloc_75(ptr noundef %1, i64 noundef %mul) #16
  %cmp12 = icmp eq ptr %call, null
  br i1 %cmp12, label %if.end23, label %if.end14

if.end14:                                         ; preds = %if.end10
  store ptr %call, ptr %elements, align 8
  %2 = load i32, ptr %maxCapacity, align 8
  store i32 %2, ptr %capacity, align 4
  %count = getelementptr inbounds i8, ptr %this, i64 8
  %3 = load i32, ptr %count, align 8
  %cmp19 = icmp sgt i32 %3, %2
  br i1 %cmp19, label %if.then20, label %if.end23

if.then20:                                        ; preds = %if.end14
  store i32 %2, ptr %count, align 8
  br label %if.end23

if.end23:                                         ; preds = %if.end10, %if.end4, %entry, %if.then20, %if.end14
  ret void
}